target datalayout = "e-m:e-p270:32:32-p271:32:32-p272:64:64-i64:64-i128:128-f80:128-n8:16:32:64-S128"
target triple = "x86_64-pc-linux-gnu"

; Function Attrs: inlinehint nounwind uwtable
define internal i32 @Abc_MinInt(i32 noundef %0, i32 noundef %1) #2 {
  %3 = alloca i32, align 4
  %4 = alloca i32, align 4
  store i32 %0, ptr %3, align 4, !tbaa !8
  store i32 %1, ptr %4, align 4, !tbaa !8
  %5 = load i32, ptr %3, align 4, !tbaa !8
  %6 = load i32, ptr %4, align 4, !tbaa !8
  %7 = icmp slt i32 %5, %6
  br i1 %7, label %8, label %10

8:                                                ; preds = %2
  %9 = load i32, ptr %3, align 4, !tbaa !8
  br label %12

10:                                               ; preds = %2
  %11 = load i32, ptr %4, align 4, !tbaa !8
  br label %12

12:                                               ; preds = %10, %8
  %13 = phi i32 [ %9, %8 ], [ %11, %10 ]
  ret i32 %13
}

; Function Attrs: inlinehint nounwind uwtable
define internal void @Abc_Tt7IsopCover(ptr noundef %0, ptr noundef %1, i32 noundef %2, ptr noundef %3, ptr noundef %4, ptr noundef %5) #2 {
  %7 = alloca ptr, align 8
  %8 = alloca ptr, align 8
  %9 = alloca i32, align 4
  %10 = alloca ptr, align 8
  %11 = alloca ptr, align 8
  %12 = alloca ptr, align 8
  %13 = alloca i64, align 8
  %14 = alloca i64, align 8
  %15 = alloca i64, align 8
  %16 = alloca i32, align 4
  %17 = alloca i32, align 4
  %18 = alloca i32, align 4
  %19 = alloca i32, align 4
  store ptr %0, ptr %7, align 8, !tbaa !3
  store ptr %1, ptr %8, align 8, !tbaa !3
  store i32 %2, ptr %9, align 4, !tbaa !8
  store ptr %3, ptr %10, align 8, !tbaa !3
  store ptr %4, ptr %11, align 8, !tbaa !22
  store ptr %5, ptr %12, align 8, !tbaa !22
  %20 = load i32, ptr %9, align 4, !tbaa !8
  %21 = icmp sle i32 %20, 6
  br i1 %21, label %38, label %22

22:                                               ; preds = %6
  %23 = load ptr, ptr %7, align 8, !tbaa !3
  %24 = getelementptr inbounds i64, ptr %23, i64 0
  %25 = load i64, ptr %24, align 8, !tbaa !10
  %26 = load ptr, ptr %7, align 8, !tbaa !3
  %27 = getelementptr inbounds i64, ptr %26, i64 1
  %28 = load i64, ptr %27, align 8, !tbaa !10
  %29 = icmp eq i64 %25, %28
  br i1 %29, label %30, label %54

30:                                               ; preds = %22
  %31 = load ptr, ptr %8, align 8, !tbaa !3
  %32 = getelementptr inbounds i64, ptr %31, i64 0
  %33 = load i64, ptr %32, align 8, !tbaa !10
  %34 = load ptr, ptr %8, align 8, !tbaa !3
  %35 = getelementptr inbounds i64, ptr %34, i64 1
  %36 = load i64, ptr %35, align 8, !tbaa !10
  %37 = icmp eq i64 %33, %36
  br i1 %37, label %38, label %54

38:                                               ; preds = %30, %6
  %39 = load ptr, ptr %7, align 8, !tbaa !3
  %40 = getelementptr inbounds i64, ptr %39, i64 0
  %41 = load i64, ptr %40, align 8, !tbaa !10
  %42 = load ptr, ptr %8, align 8, !tbaa !3
  %43 = getelementptr inbounds i64, ptr %42, i64 0
  %44 = load i64, ptr %43, align 8, !tbaa !10
  %45 = load i32, ptr %9, align 4, !tbaa !8
  %46 = call i32 @Abc_MinInt(i32 noundef %45, i32 noundef 6)
  %47 = load ptr, ptr %11, align 8, !tbaa !22
  %48 = load ptr, ptr %12, align 8, !tbaa !22
  %49 = call i64 @Abc_Tt6IsopCover(i64 noundef %41, i64 noundef %44, i32 noundef %46, ptr noundef %47, ptr noundef %48)
  %50 = load ptr, ptr %10, align 8, !tbaa !3
  %51 = getelementptr inbounds i64, ptr %50, i64 1
  store i64 %49, ptr %51, align 8, !tbaa !10
  %52 = load ptr, ptr %10, align 8, !tbaa !3
  %53 = getelementptr inbounds i64, ptr %52, i64 0
  store i64 %49, ptr %53, align 8, !tbaa !10
  br label %154

54:                                               ; preds = %30, %22
  call void @llvm.lifetime.start.p0(i64 8, ptr %13) #14
  call void @llvm.lifetime.start.p0(i64 8, ptr %14) #14
  call void @llvm.lifetime.start.p0(i64 8, ptr %15) #14
  call void @llvm.lifetime.start.p0(i64 4, ptr %16) #14
  call void @llvm.lifetime.start.p0(i64 4, ptr %17) #14
  call void @llvm.lifetime.start.p0(i64 4, ptr %18) #14
  call void @llvm.lifetime.start.p0(i64 4, ptr %19) #14
  %55 = load ptr, ptr %12, align 8, !tbaa !22
  %56 = load i32, ptr %55, align 4, !tbaa !8
  store i32 %56, ptr %17, align 4, !tbaa !8
  %57 = load ptr, ptr %7, align 8, !tbaa !3
  %58 = getelementptr inbounds i64, ptr %57, i64 0
  %59 = load i64, ptr %58, align 8, !tbaa !10
  %60 = load ptr, ptr %8, align 8, !tbaa !3
  %61 = getelementptr inbounds i64, ptr %60, i64 1
  %62 = load i64, ptr %61, align 8, !tbaa !10
  %63 = xor i64 %62, -1
  %64 = and i64 %59, %63
  %65 = load ptr, ptr %8, align 8, !tbaa !3
  %66 = getelementptr inbounds i64, ptr %65, i64 0
  %67 = load i64, ptr %66, align 8, !tbaa !10
  %68 = load ptr, ptr %11, align 8, !tbaa !22
  %69 = load ptr, ptr %12, align 8, !tbaa !22
  %70 = call i64 @Abc_Tt6IsopCover(i64 noundef %64, i64 noundef %67, i32 noundef 6, ptr noundef %68, ptr noundef %69)
  store i64 %70, ptr %13, align 8, !tbaa !10
  %71 = load ptr, ptr %12, align 8, !tbaa !22
  %72 = load i32, ptr %71, align 4, !tbaa !8
  store i32 %72, ptr %18, align 4, !tbaa !8
  %73 = load ptr, ptr %7, align 8, !tbaa !3
  %74 = getelementptr inbounds i64, ptr %73, i64 1
  %75 = load i64, ptr %74, align 8, !tbaa !10
  %76 = load ptr, ptr %8, align 8, !tbaa !3
  %77 = getelementptr inbounds i64, ptr %76, i64 0
  %78 = load i64, ptr %77, align 8, !tbaa !10
  %79 = xor i64 %78, -1
  %80 = and i64 %75, %79
  %81 = load ptr, ptr %8, align 8, !tbaa !3
  %82 = getelementptr inbounds i64, ptr %81, i64 1
  %83 = load i64, ptr %82, align 8, !tbaa !10
  %84 = load ptr, ptr %11, align 8, !tbaa !22
  %85 = load ptr, ptr %12, align 8, !tbaa !22
  %86 = call i64 @Abc_Tt6IsopCover(i64 noundef %80, i64 noundef %83, i32 noundef 6, ptr noundef %84, ptr noundef %85)
  store i64 %86, ptr %14, align 8, !tbaa !10
  %87 = load ptr, ptr %12, align 8, !tbaa !22
  %88 = load i32, ptr %87, align 4, !tbaa !8
  store i32 %88, ptr %19, align 4, !tbaa !8
  %89 = load ptr, ptr %7, align 8, !tbaa !3
  %90 = getelementptr inbounds i64, ptr %89, i64 0
  %91 = load i64, ptr %90, align 8, !tbaa !10
  %92 = load i64, ptr %13, align 8, !tbaa !10
  %93 = xor i64 %92, -1
  %94 = and i64 %91, %93
  %95 = load ptr, ptr %7, align 8, !tbaa !3
  %96 = getelementptr inbounds i64, ptr %95, i64 1
  %97 = load i64, ptr %96, align 8, !tbaa !10
  %98 = load i64, ptr %14, align 8, !tbaa !10
  %99 = xor i64 %98, -1
  %100 = and i64 %97, %99
  %101 = or i64 %94, %100
  %102 = load ptr, ptr %8, align 8, !tbaa !3
  %103 = getelementptr inbounds i64, ptr %102, i64 0
  %104 = load i64, ptr %103, align 8, !tbaa !10
  %105 = load ptr, ptr %8, align 8, !tbaa !3
  %106 = getelementptr inbounds i64, ptr %105, i64 1
  %107 = load i64, ptr %106, align 8, !tbaa !10
  %108 = and i64 %104, %107
  %109 = load ptr, ptr %11, align 8, !tbaa !22
  %110 = load ptr, ptr %12, align 8, !tbaa !22
  %111 = call i64 @Abc_Tt6IsopCover(i64 noundef %101, i64 noundef %108, i32 noundef 6, ptr noundef %109, ptr noundef %110)
  store i64 %111, ptr %15, align 8, !tbaa !10
  %112 = load i64, ptr %15, align 8, !tbaa !10
  %113 = load i64, ptr %13, align 8, !tbaa !10
  %114 = or i64 %112, %113
  %115 = load ptr, ptr %10, align 8, !tbaa !3
  %116 = getelementptr inbounds i64, ptr %115, i64 0
  store i64 %114, ptr %116, align 8, !tbaa !10
  %117 = load i64, ptr %15, align 8, !tbaa !10
  %118 = load i64, ptr %14, align 8, !tbaa !10
  %119 = or i64 %117, %118
  %120 = load ptr, ptr %10, align 8, !tbaa !3
  %121 = getelementptr inbounds i64, ptr %120, i64 1
  store i64 %119, ptr %121, align 8, !tbaa !10
  %122 = load i32, ptr %17, align 4, !tbaa !8
  store i32 %122, ptr %16, align 4, !tbaa !8
  br label %123

123:                                              ; preds = %134, %54
  %124 = load i32, ptr %16, align 4, !tbaa !8
  %125 = load i32, ptr %18, align 4, !tbaa !8
  %126 = icmp slt i32 %124, %125
  br i1 %126, label %127, label %137

127:                                              ; preds = %123
  %128 = load ptr, ptr %11, align 8, !tbaa !22
  %129 = load i32, ptr %16, align 4, !tbaa !8
  %130 = sext i32 %129 to i64
  %131 = getelementptr inbounds i32, ptr %128, i64 %130
  %132 = load i32, ptr %131, align 4, !tbaa !8
  %133 = or i32 %132, 4096
  store i32 %133, ptr %131, align 4, !tbaa !8
  br label %134

134:                                              ; preds = %127
  %135 = load i32, ptr %16, align 4, !tbaa !8
  %136 = add nsw i32 %135, 1
  store i32 %136, ptr %16, align 4, !tbaa !8
  br label %123, !llvm.loop !294

137:                                              ; preds = %123
  %138 = load i32, ptr %18, align 4, !tbaa !8
  store i32 %138, ptr %16, align 4, !tbaa !8
  br label %139

139:                                              ; preds = %150, %137
  %140 = load i32, ptr %16, align 4, !tbaa !8
  %141 = load i32, ptr %19, align 4, !tbaa !8
  %142 = icmp slt i32 %140, %141
  br i1 %142, label %143, label %153

143:                                              ; preds = %139
  %144 = load ptr, ptr %11, align 8, !tbaa !22
  %145 = load i32, ptr %16, align 4, !tbaa !8
  %146 = sext i32 %145 to i64
  %147 = getelementptr inbounds i32, ptr %144, i64 %146
  %148 = load i32, ptr %147, align 4, !tbaa !8
  %149 = or i32 %148, 8192
  store i32 %149, ptr %147, align 4, !tbaa !8
  br label %150

150:                                              ; preds = %143
  %151 = load i32, ptr %16, align 4, !tbaa !8
  %152 = add nsw i32 %151, 1
  store i32 %152, ptr %16, align 4, !tbaa !8
  br label %139, !llvm.loop !295

153:                                              ; preds = %139
  call void @llvm.lifetime.end.p0(i64 4, ptr %19) #14
  call void @llvm.lifetime.end.p0(i64 4, ptr %18) #14
  call void @llvm.lifetime.end.p0(i64 4, ptr %17) #14
  call void @llvm.lifetime.end.p0(i64 4, ptr %16) #14
  call void @llvm.lifetime.end.p0(i64 8, ptr %15) #14
  call void @llvm.lifetime.end.p0(i64 8, ptr %14) #14
  call void @llvm.lifetime.end.p0(i64 8, ptr %13) #14
  br label %154

154:                                              ; preds = %153, %38
  ret void
}