; Function Attrs: inlinehint nofree nosync nounwind memory(argmem: readwrite) uwtable
define internal fastcc void @Abc_Tt7IsopCover(ptr noundef readonly captures(none) %0, ptr noundef readonly captures(none) %1, ptr noundef nonnull writeonly captures(none) initializes((0, 16)) %2, ptr noundef nonnull %3, ptr noundef nonnull %4) unnamed_addr #16 {
  %6 = load i64, ptr %0, align 8, !tbaa !3
  %7 = getelementptr inbounds nuw i8, ptr %0, i64 8
  %8 = load i64, ptr %7, align 8, !tbaa !3
  %9 = icmp eq i64 %6, %8
  br i1 %9, label %10, label %._crit_edge

._crit_edge:                                      ; preds = %5
  %.phi.trans.insert = getelementptr inbounds nuw i8, ptr %1, i64 8
  %.pre = load i64, ptr %.phi.trans.insert, align 8, !tbaa !3
  %.pre60 = load i64, ptr %1, align 8, !tbaa !3
  br label %18

10:                                               ; preds = %5
  %11 = load i64, ptr %1, align 8, !tbaa !3
  %12 = getelementptr inbounds nuw i8, ptr %1, i64 8
  %13 = load i64, ptr %12, align 8, !tbaa !3
  %14 = icmp eq i64 %11, %13
  br i1 %14, label %15, label %18

15:                                               ; preds = %10
  %16 = tail call fastcc i64 @Abc_Tt6IsopCover(i64 noundef %6, i64 noundef %11, i32 noundef 6, ptr noundef %3, ptr noundef %4)
  %17 = getelementptr inbounds nuw i8, ptr %2, i64 8
  store i64 %16, ptr %17, align 8, !tbaa !3
  store i64 %16, ptr %2, align 8, !tbaa !3
  br label %.loopexit

18:                                               ; preds = %._crit_edge, %10
  %19 = phi i64 [ %.pre60, %._crit_edge ], [ %11, %10 ]
  %20 = phi i64 [ %.pre, %._crit_edge ], [ %13, %10 ]
  %21 = load i32, ptr %4, align 4, !tbaa !12
  %22 = getelementptr inbounds nuw i8, ptr %1, i64 8
  %23 = xor i64 %20, -1
  %24 = and i64 %6, %23
  %25 = tail call fastcc i64 @Abc_Tt6IsopCover(i64 noundef %24, i64 noundef %19, i32 noundef 6, ptr noundef %3, ptr noundef %4)
  %26 = load i32, ptr %4, align 4, !tbaa !12
  %27 = load i64, ptr %7, align 8, !tbaa !3
  %28 = load i64, ptr %1, align 8, !tbaa !3
  %29 = xor i64 %28, -1
  %30 = and i64 %27, %29
  %31 = load i64, ptr %22, align 8, !tbaa !3
  %32 = tail call fastcc i64 @Abc_Tt6IsopCover(i64 noundef %30, i64 noundef %31, i32 noundef 6, ptr noundef %3, ptr noundef %4)
  %33 = load i32, ptr %4, align 4, !tbaa !12
  %34 = load i64, ptr %0, align 8, !tbaa !3
  %35 = xor i64 %25, -1
  %36 = and i64 %34, %35
  %37 = load i64, ptr %7, align 8, !tbaa !3
  %38 = xor i64 %32, -1
  %39 = and i64 %37, %38
  %40 = or i64 %39, %36
  %41 = load i64, ptr %1, align 8, !tbaa !3
  %42 = load i64, ptr %22, align 8, !tbaa !3
  %43 = and i64 %42, %41
  %44 = tail call fastcc i64 @Abc_Tt6IsopCover(i64 noundef %40, i64 noundef %43, i32 noundef 6, ptr noundef %3, ptr noundef %4)
  %45 = or i64 %44, %25
  store i64 %45, ptr %2, align 8, !tbaa !3
  %46 = or i64 %44, %32
  %47 = getelementptr inbounds nuw i8, ptr %2, i64 8
  store i64 %46, ptr %47, align 8, !tbaa !3
  %48 = icmp slt i32 %21, %26
  br i1 %48, label %.lr.ph.preheader, label %.preheader

.lr.ph.preheader:                                 ; preds = %18
  %49 = sext i32 %21 to i64
  %wide.trip.count = sext i32 %26 to i64
  br label %.lr.ph

.preheader:                                       ; preds = %.lr.ph, %18
  %50 = icmp slt i32 %26, %33
  br i1 %50, label %.lr.ph53.preheader, label %.loopexit

.lr.ph53.preheader:                               ; preds = %.preheader
  %51 = sext i32 %26 to i64
  %wide.trip.count58 = sext i32 %33 to i64
  br label %.lr.ph53

.lr.ph:                                           ; preds = %.lr.ph.preheader, %.lr.ph
  %indvars.iv = phi i64 [ %49, %.lr.ph.preheader ], [ %indvars.iv.next, %.lr.ph ]
  %52 = getelementptr inbounds i32, ptr %3, i64 %indvars.iv
  %53 = load i32, ptr %52, align 4, !tbaa !12
  %54 = or i32 %53, 4096
  store i32 %54, ptr %52, align 4, !tbaa !12
  %indvars.iv.next = add nsw i64 %indvars.iv, 1
  %exitcond.not = icmp eq i64 %indvars.iv.next, %wide.trip.count
  br i1 %exitcond.not, label %.preheader, label %.lr.ph, !llvm.loop !309

.lr.ph53:                                         ; preds = %.lr.ph53.preheader, %.lr.ph53
  %indvars.iv55 = phi i64 [ %51, %.lr.ph53.preheader ], [ %indvars.iv.next56, %.lr.ph53 ]
  %55 = getelementptr inbounds i32, ptr %3, i64 %indvars.iv55
  %56 = load i32, ptr %55, align 4, !tbaa !12
  %57 = or i32 %56, 8192
  store i32 %57, ptr %55, align 4, !tbaa !12
  %indvars.iv.next56 = add nsw i64 %indvars.iv55, 1
  %exitcond59.not = icmp eq i64 %indvars.iv.next56, %wide.trip.count58
  br i1 %exitcond59.not, label %.loopexit, label %.lr.ph53, !llvm.loop !310

.loopexit:                                        ; preds = %.lr.ph53, %.preheader, %15
  ret void
}